target datalayout = "e-m:e-p270:32:32-p271:32:32-p272:64:64-i64:64-i128:128-f80:128-n8:16:32:64-S128"
target triple = "x86_64-pc-linux-gnu"

; Function Attrs: nounwind ssp uwtable
define internal void @fe25519_sq(ptr noundef %0, ptr noundef %1) #0 {
  %3 = alloca ptr, align 8
  %4 = alloca ptr, align 8
  %5 = alloca i64, align 8
  %6 = alloca i128, align 16
  %7 = alloca i128, align 16
  %8 = alloca i128, align 16
  %9 = alloca i128, align 16
  %10 = alloca i128, align 16
  %11 = alloca i128, align 16
  %12 = alloca i128, align 16
  %13 = alloca i128, align 16
  %14 = alloca i128, align 16
  %15 = alloca i128, align 16
  %16 = alloca i128, align 16
  %17 = alloca i128, align 16
  %18 = alloca i128, align 16
  %19 = alloca i128, align 16
  %20 = alloca i128, align 16
  %21 = alloca i128, align 16
  %22 = alloca i128, align 16
  %23 = alloca i64, align 8
  %24 = alloca i64, align 8
  %25 = alloca i64, align 8
  %26 = alloca i64, align 8
  %27 = alloca i64, align 8
  %28 = alloca i64, align 8
  store ptr %0, ptr %3, align 8
  store ptr %1, ptr %4, align 8
  call void @llvm.lifetime.start.p0(i64 8, ptr %5) #8
  store i64 2251799813685247, ptr %5, align 8
  call void @llvm.lifetime.start.p0(i64 16, ptr %6) #8
  call void @llvm.lifetime.start.p0(i64 16, ptr %7) #8
  call void @llvm.lifetime.start.p0(i64 16, ptr %8) #8
  call void @llvm.lifetime.start.p0(i64 16, ptr %9) #8
  call void @llvm.lifetime.start.p0(i64 16, ptr %10) #8
  call void @llvm.lifetime.start.p0(i64 16, ptr %11) #8
  call void @llvm.lifetime.start.p0(i64 16, ptr %12) #8
  call void @llvm.lifetime.start.p0(i64 16, ptr %13) #8
  call void @llvm.lifetime.start.p0(i64 16, ptr %14) #8
  call void @llvm.lifetime.start.p0(i64 16, ptr %15) #8
  call void @llvm.lifetime.start.p0(i64 16, ptr %16) #8
  call void @llvm.lifetime.start.p0(i64 16, ptr %17) #8
  call void @llvm.lifetime.start.p0(i64 16, ptr %18) #8
  call void @llvm.lifetime.start.p0(i64 16, ptr %19) #8
  call void @llvm.lifetime.start.p0(i64 16, ptr %20) #8
  call void @llvm.lifetime.start.p0(i64 16, ptr %21) #8
  call void @llvm.lifetime.start.p0(i64 16, ptr %22) #8
  call void @llvm.lifetime.start.p0(i64 8, ptr %23) #8
  call void @llvm.lifetime.start.p0(i64 8, ptr %24) #8
  call void @llvm.lifetime.start.p0(i64 8, ptr %25) #8
  call void @llvm.lifetime.start.p0(i64 8, ptr %26) #8
  call void @llvm.lifetime.start.p0(i64 8, ptr %27) #8
  call void @llvm.lifetime.start.p0(i64 8, ptr %28) #8
  %29 = load ptr, ptr %4, align 8
  %30 = getelementptr i64, ptr %29, i64 0
  %31 = load i64, ptr %30, align 8
  %32 = zext i64 %31 to i128
  store i128 %32, ptr %11, align 16
  %33 = load ptr, ptr %4, align 8
  %34 = getelementptr i64, ptr %33, i64 1
  %35 = load i64, ptr %34, align 8
  %36 = zext i64 %35 to i128
  store i128 %36, ptr %12, align 16
  %37 = load ptr, ptr %4, align 8
  %38 = getelementptr i64, ptr %37, i64 2
  %39 = load i64, ptr %38, align 8
  %40 = zext i64 %39 to i128
  store i128 %40, ptr %13, align 16
  %41 = load ptr, ptr %4, align 8
  %42 = getelementptr i64, ptr %41, i64 3
  %43 = load i64, ptr %42, align 8
  %44 = zext i64 %43 to i128
  store i128 %44, ptr %14, align 16
  %45 = load ptr, ptr %4, align 8
  %46 = getelementptr i64, ptr %45, i64 4
  %47 = load i64, ptr %46, align 8
  %48 = zext i64 %47 to i128
  store i128 %48, ptr %15, align 16
  %49 = load i128, ptr %11, align 16
  %50 = shl i128 %49, 1
  store i128 %50, ptr %16, align 16
  %51 = load i128, ptr %12, align 16
  %52 = shl i128 %51, 1
  store i128 %52, ptr %17, align 16
  %53 = load i128, ptr %12, align 16
  %54 = mul i128 38, %53
  store i128 %54, ptr %18, align 16
  %55 = load i128, ptr %13, align 16
  %56 = mul i128 38, %55
  store i128 %56, ptr %19, align 16
  %57 = load i128, ptr %14, align 16
  %58 = mul i128 38, %57
  store i128 %58, ptr %20, align 16
  %59 = load i128, ptr %14, align 16
  %60 = mul i128 19, %59
  store i128 %60, ptr %21, align 16
  %61 = load i128, ptr %15, align 16
  %62 = mul i128 19, %61
  store i128 %62, ptr %22, align 16
  %63 = load i128, ptr %11, align 16
  %64 = load i128, ptr %11, align 16
  %65 = mul i128 %63, %64
  %66 = load i128, ptr %18, align 16
  %67 = load i128, ptr %15, align 16
  %68 = mul i128 %66, %67
  %69 = add i128 %65, %68
  %70 = load i128, ptr %19, align 16
  %71 = load i128, ptr %14, align 16
  %72 = mul i128 %70, %71
  %73 = add i128 %69, %72
  store i128 %73, ptr %6, align 16
  %74 = load i128, ptr %16, align 16
  %75 = load i128, ptr %12, align 16
  %76 = mul i128 %74, %75
  %77 = load i128, ptr %19, align 16
  %78 = load i128, ptr %15, align 16
  %79 = mul i128 %77, %78
  %80 = add i128 %76, %79
  %81 = load i128, ptr %21, align 16
  %82 = load i128, ptr %14, align 16
  %83 = mul i128 %81, %82
  %84 = add i128 %80, %83
  store i128 %84, ptr %7, align 16
  %85 = load i128, ptr %16, align 16
  %86 = load i128, ptr %13, align 16
  %87 = mul i128 %85, %86
  %88 = load i128, ptr %12, align 16
  %89 = load i128, ptr %12, align 16
  %90 = mul i128 %88, %89
  %91 = add i128 %87, %90
  %92 = load i128, ptr %20, align 16
  %93 = load i128, ptr %15, align 16
  %94 = mul i128 %92, %93
  %95 = add i128 %91, %94
  store i128 %95, ptr %8, align 16
  %96 = load i128, ptr %16, align 16
  %97 = load i128, ptr %14, align 16
  %98 = mul i128 %96, %97
  %99 = load i128, ptr %17, align 16
  %100 = load i128, ptr %13, align 16
  %101 = mul i128 %99, %100
  %102 = add i128 %98, %101
  %103 = load i128, ptr %22, align 16
  %104 = load i128, ptr %15, align 16
  %105 = mul i128 %103, %104
  %106 = add i128 %102, %105
  store i128 %106, ptr %9, align 16
  %107 = load i128, ptr %16, align 16
  %108 = load i128, ptr %15, align 16
  %109 = mul i128 %107, %108
  %110 = load i128, ptr %17, align 16
  %111 = load i128, ptr %14, align 16
  %112 = mul i128 %110, %111
  %113 = add i128 %109, %112
  %114 = load i128, ptr %13, align 16
  %115 = load i128, ptr %13, align 16
  %116 = mul i128 %114, %115
  %117 = add i128 %113, %116
  store i128 %117, ptr %10, align 16
  %118 = load i128, ptr %6, align 16
  %119 = trunc i128 %118 to i64
  %120 = and i64 %119, 2251799813685247
  store i64 %120, ptr %23, align 8
  %121 = load i128, ptr %6, align 16
  %122 = lshr i128 %121, 51
  %123 = trunc i128 %122 to i64
  store i64 %123, ptr %28, align 8
  %124 = load i64, ptr %28, align 8
  %125 = zext i64 %124 to i128
  %126 = load i128, ptr %7, align 16
  %127 = add i128 %126, %125
  store i128 %127, ptr %7, align 16
  %128 = load i128, ptr %7, align 16
  %129 = trunc i128 %128 to i64
  %130 = and i64 %129, 2251799813685247
  store i64 %130, ptr %24, align 8
  %131 = load i128, ptr %7, align 16
  %132 = lshr i128 %131, 51
  %133 = trunc i128 %132 to i64
  store i64 %133, ptr %28, align 8
  %134 = load i64, ptr %28, align 8
  %135 = zext i64 %134 to i128
  %136 = load i128, ptr %8, align 16
  %137 = add i128 %136, %135
  store i128 %137, ptr %8, align 16
  %138 = load i128, ptr %8, align 16
  %139 = trunc i128 %138 to i64
  %140 = and i64 %139, 2251799813685247
  store i64 %140, ptr %25, align 8
  %141 = load i128, ptr %8, align 16
  %142 = lshr i128 %141, 51
  %143 = trunc i128 %142 to i64
  store i64 %143, ptr %28, align 8
  %144 = load i64, ptr %28, align 8
  %145 = zext i64 %144 to i128
  %146 = load i128, ptr %9, align 16
  %147 = add i128 %146, %145
  store i128 %147, ptr %9, align 16
  %148 = load i128, ptr %9, align 16
  %149 = trunc i128 %148 to i64
  %150 = and i64 %149, 2251799813685247
  store i64 %150, ptr %26, align 8
  %151 = load i128, ptr %9, align 16
  %152 = lshr i128 %151, 51
  %153 = trunc i128 %152 to i64
  store i64 %153, ptr %28, align 8
  %154 = load i64, ptr %28, align 8
  %155 = zext i64 %154 to i128
  %156 = load i128, ptr %10, align 16
  %157 = add i128 %156, %155
  store i128 %157, ptr %10, align 16
  %158 = load i128, ptr %10, align 16
  %159 = trunc i128 %158 to i64
  %160 = and i64 %159, 2251799813685247
  store i64 %160, ptr %27, align 8
  %161 = load i128, ptr %10, align 16
  %162 = lshr i128 %161, 51
  %163 = trunc i128 %162 to i64
  store i64 %163, ptr %28, align 8
  %164 = load i64, ptr %28, align 8
  %165 = mul i64 19, %164
  %166 = load i64, ptr %23, align 8
  %167 = add i64 %166, %165
  store i64 %167, ptr %23, align 8
  %168 = load i64, ptr %23, align 8
  %169 = lshr i64 %168, 51
  store i64 %169, ptr %28, align 8
  %170 = load i64, ptr %23, align 8
  %171 = and i64 %170, 2251799813685247
  store i64 %171, ptr %23, align 8
  %172 = load i64, ptr %28, align 8
  %173 = load i64, ptr %24, align 8
  %174 = add i64 %173, %172
  store i64 %174, ptr %24, align 8
  %175 = load i64, ptr %24, align 8
  %176 = lshr i64 %175, 51
  store i64 %176, ptr %28, align 8
  %177 = load i64, ptr %24, align 8
  %178 = and i64 %177, 2251799813685247
  store i64 %178, ptr %24, align 8
  %179 = load i64, ptr %28, align 8
  %180 = load i64, ptr %25, align 8
  %181 = add i64 %180, %179
  store i64 %181, ptr %25, align 8
  %182 = load i64, ptr %23, align 8
  %183 = load ptr, ptr %3, align 8
  %184 = getelementptr i64, ptr %183, i64 0
  store i64 %182, ptr %184, align 8
  %185 = load i64, ptr %24, align 8
  %186 = load ptr, ptr %3, align 8
  %187 = getelementptr i64, ptr %186, i64 1
  store i64 %185, ptr %187, align 8
  %188 = load i64, ptr %25, align 8
  %189 = load ptr, ptr %3, align 8
  %190 = getelementptr i64, ptr %189, i64 2
  store i64 %188, ptr %190, align 8
  %191 = load i64, ptr %26, align 8
  %192 = load ptr, ptr %3, align 8
  %193 = getelementptr i64, ptr %192, i64 3
  store i64 %191, ptr %193, align 8
  %194 = load i64, ptr %27, align 8
  %195 = load ptr, ptr %3, align 8
  %196 = getelementptr i64, ptr %195, i64 4
  store i64 %194, ptr %196, align 8
  call void @llvm.lifetime.end.p0(i64 8, ptr %28) #8
  call void @llvm.lifetime.end.p0(i64 8, ptr %27) #8
  call void @llvm.lifetime.end.p0(i64 8, ptr %26) #8
  call void @llvm.lifetime.end.p0(i64 8, ptr %25) #8
  call void @llvm.lifetime.end.p0(i64 8, ptr %24) #8
  call void @llvm.lifetime.end.p0(i64 8, ptr %23) #8
  call void @llvm.lifetime.end.p0(i64 16, ptr %22) #8
  call void @llvm.lifetime.end.p0(i64 16, ptr %21) #8
  call void @llvm.lifetime.end.p0(i64 16, ptr %20) #8
  call void @llvm.lifetime.end.p0(i64 16, ptr %19) #8
  call void @llvm.lifetime.end.p0(i64 16, ptr %18) #8
  call void @llvm.lifetime.end.p0(i64 16, ptr %17) #8
  call void @llvm.lifetime.end.p0(i64 16, ptr %16) #8
  call void @llvm.lifetime.end.p0(i64 16, ptr %15) #8
  call void @llvm.lifetime.end.p0(i64 16, ptr %14) #8
  call void @llvm.lifetime.end.p0(i64 16, ptr %13) #8
  call void @llvm.lifetime.end.p0(i64 16, ptr %12) #8
  call void @llvm.lifetime.end.p0(i64 16, ptr %11) #8
  call void @llvm.lifetime.end.p0(i64 16, ptr %10) #8
  call void @llvm.lifetime.end.p0(i64 16, ptr %9) #8
  call void @llvm.lifetime.end.p0(i64 16, ptr %8) #8
  call void @llvm.lifetime.end.p0(i64 16, ptr %7) #8
  call void @llvm.lifetime.end.p0(i64 16, ptr %6) #8
  call void @llvm.lifetime.end.p0(i64 8, ptr %5) #8
  ret void
}

; Function Attrs: inlinehint nounwind ssp uwtable
define internal void @fe25519_sqmul(ptr noundef %0, i32 noundef %1, ptr noundef %2) #2 {
  %4 = alloca ptr, align 8
  %5 = alloca i32, align 4
  %6 = alloca ptr, align 8
  %7 = alloca i32, align 4
  store ptr %0, ptr %4, align 8
  store i32 %1, ptr %5, align 4
  store ptr %2, ptr %6, align 8
  call void @llvm.lifetime.start.p0(i64 4, ptr %7) #8
  store i32 0, ptr %7, align 4
  br label %8

8:                                                ; preds = %15, %3
  %9 = load i32, ptr %7, align 4
  %10 = load i32, ptr %5, align 4
  %11 = icmp slt i32 %9, %10
  br i1 %11, label %12, label %18

12:                                               ; preds = %8
  %13 = load ptr, ptr %4, align 8
  %14 = load ptr, ptr %4, align 8
  call void @fe25519_sq(ptr noundef %13, ptr noundef %14)
  br label %15

15:                                               ; preds = %12
  %16 = load i32, ptr %7, align 4
  %17 = add i32 %16, 1
  store i32 %17, ptr %7, align 4
  br label %8, !llvm.loop !42

18:                                               ; preds = %8
  %19 = load ptr, ptr %4, align 8
  %20 = load ptr, ptr %4, align 8
  %21 = load ptr, ptr %6, align 8
  call void @fe25519_mul(ptr noundef %19, ptr noundef %20, ptr noundef %21)
  call void @llvm.lifetime.end.p0(i64 4, ptr %7) #8
  ret void
}