; Function Attrs: inlinehint nofree norecurse nosync nounwind ssp memory(argmem: readwrite) uwtable
define internal fastcc void @fe25519_sqmul(ptr noundef nonnull captures(none) %0, i32 noundef range(i32 2, 121) %1, ptr noundef nonnull readonly captures(none) %2) unnamed_addr #8 {
  %4 = getelementptr i8, ptr %0, i64 8
  %5 = getelementptr i8, ptr %0, i64 16
  %6 = getelementptr i8, ptr %0, i64 24
  %7 = getelementptr i8, ptr %0, i64 32
  %.promoted = load i64, ptr %0, align 8
  %.promoted7 = load i64, ptr %4, align 8
  %.promoted9 = load i64, ptr %5, align 8
  %.promoted11 = load i64, ptr %6, align 8
  %.promoted13 = load i64, ptr %7, align 8
  br label %8

8:                                                ; preds = %3, %8
  %.015 = phi i32 [ 0, %3 ], [ %82, %8 ]
  %9 = phi i64 [ %.promoted, %3 ], [ %77, %8 ]
  %10 = phi i64 [ %.promoted7, %3 ], [ %80, %8 ]
  %11 = phi i64 [ %.promoted9, %3 ], [ %81, %8 ]
  %12 = phi i64 [ %.promoted11, %3 ], [ %64, %8 ]
  %13 = phi i64 [ %.promoted13, %3 ], [ %71, %8 ]
  %14 = zext i64 %9 to i128
  %15 = zext i64 %10 to i128
  %16 = zext i64 %11 to i128
  %17 = zext i64 %12 to i128
  %18 = zext i64 %13 to i128
  %19 = shl nuw nsw i128 %14, 1
  %20 = shl nuw nsw i128 %15, 1
  %21 = mul nuw nsw i128 %16, 38
  %22 = mul nuw nsw i128 %17, 19
  %23 = mul nuw nsw i128 %18, 19
  %24 = mul nuw i128 %14, %14
  %25 = mul nuw nsw i128 %18, 38
  %26 = mul i128 %25, %15
  %27 = mul i128 %21, %17
  %28 = add i128 %27, %24
  %29 = add i128 %28, %26
  %30 = mul i128 %19, %15
  %31 = mul i128 %21, %18
  %32 = add i128 %31, %30
  %33 = mul i128 %22, %17
  %34 = add i128 %32, %33
  %35 = mul i128 %19, %16
  %36 = mul nuw i128 %15, %15
  %37 = add i128 %35, %36
  %38 = mul i128 %25, %17
  %39 = add i128 %37, %38
  %40 = mul i128 %19, %17
  %41 = mul i128 %20, %16
  %42 = add i128 %40, %41
  %43 = mul i128 %23, %18
  %44 = add i128 %42, %43
  %45 = mul i128 %19, %18
  %46 = mul i128 %20, %17
  %47 = mul nuw i128 %16, %16
  %48 = trunc i128 %29 to i64
  %49 = and i64 %48, 2251799813685247
  %50 = lshr i128 %29, 51
  %51 = and i128 %50, 18446744073709551615
  %52 = add i128 %34, %51
  %53 = trunc i128 %52 to i64
  %54 = and i64 %53, 2251799813685247
  %55 = lshr i128 %52, 51
  %56 = and i128 %55, 18446744073709551615
  %57 = add i128 %39, %56
  %58 = trunc i128 %57 to i64
  %59 = and i64 %58, 2251799813685247
  %60 = lshr i128 %57, 51
  %61 = and i128 %60, 18446744073709551615
  %62 = add i128 %44, %61
  %63 = trunc i128 %62 to i64
  %64 = and i64 %63, 2251799813685247
  %65 = lshr i128 %62, 51
  %66 = and i128 %65, 18446744073709551615
  %67 = add i128 %46, %47
  %68 = add i128 %67, %45
  %69 = add i128 %68, %66
  %70 = trunc i128 %69 to i64
  %71 = and i64 %70, 2251799813685247
  %72 = lshr i128 %69, 51
  %73 = trunc i128 %72 to i64
  %74 = mul i64 %73, 19
  %75 = add i64 %74, %49
  %76 = lshr i64 %75, 51
  %77 = and i64 %75, 2251799813685247
  %78 = add nuw nsw i64 %76, %54
  %79 = lshr i64 %78, 51
  %80 = and i64 %78, 2251799813685247
  %81 = add nuw nsw i64 %79, %59
  %82 = add nuw nsw i32 %.015, 1
  %exitcond.not = icmp eq i32 %82, %1
  br i1 %exitcond.not, label %83, label %8, !llvm.loop !42

83:                                               ; preds = %8
  store i64 %77, ptr %0, align 8
  store i64 %80, ptr %4, align 8
  store i64 %81, ptr %5, align 8
  store i64 %64, ptr %6, align 8
  store i64 %71, ptr %7, align 8
  tail call fastcc void @fe25519_mul(ptr noundef nonnull %0, ptr noundef nonnull %0, ptr noundef nonnull %2)
  ret void
}